#include <math.h>
#include <stdio.h>
#include <stdlib.h>
#include <string.h>

int main()
{
	double a,b,c,d,s,x,y,S;
	scanf("%lf",&a);
	scanf("%lf",&b);
	scanf("%lf",&c);
	scanf("%lf",&d);
	scanf("%lf",&x);
	s=1.0/2.0*(a+b+c+d);
	y = x/360*3.1415926;
	S = sqrt((s-a)*(s-b)*(s-c)*(s-d) - a*b*c*d*(cos(y)*cos(y)));
	if((s-a)*(s-b)*(s-c)*(s-d) - a*b*c*d*(cos(y)*cos(y))<0)
		printf("Invalid input");
	else
		printf("%.4lf",S);
	return 0;
}