; ModuleID = 'source-C-CXX/39/417.c'
source_filename = "source-C-CXX/39/417.c"
target datalayout = "e-m:e-p270:32:32-p271:32:32-p272:64:64-i64:64-f80:128-n8:16:32:64-S128"
target triple = "x86_64-pc-linux-gnu"

@.str = private unnamed_addr constant [4 x i8] c"%lf\00", align 1
@.str.1 = private unnamed_addr constant [14 x i8] c"Invalid input\00", align 1
@.str.2 = private unnamed_addr constant [6 x i8] c"%.4lf\00", align 1

; Function Attrs: nofree nounwind sspstrong uwtable
define dso_local i32 @main() local_unnamed_addr #0 {
  %1 = alloca double, align 8
  %2 = alloca double, align 8
  %3 = alloca double, align 8
  %4 = alloca double, align 8
  %5 = alloca double, align 8
  %6 = bitcast double* %1 to i8*
  call void @llvm.lifetime.start.p0i8(i64 8, i8* nonnull %6) #4
  %7 = bitcast double* %2 to i8*
  call void @llvm.lifetime.start.p0i8(i64 8, i8* nonnull %7) #4
  %8 = bitcast double* %3 to i8*
  call void @llvm.lifetime.start.p0i8(i64 8, i8* nonnull %8) #4
  %9 = bitcast double* %4 to i8*
  call void @llvm.lifetime.start.p0i8(i64 8, i8* nonnull %9) #4
  %10 = bitcast double* %5 to i8*
  call void @llvm.lifetime.start.p0i8(i64 8, i8* nonnull %10) #4
  %11 = call i32 (i8*, ...) @__isoc99_scanf(i8* getelementptr inbounds ([4 x i8], [4 x i8]* @.str, i64 0, i64 0), double* nonnull %1)
  %12 = call i32 (i8*, ...) @__isoc99_scanf(i8* getelementptr inbounds ([4 x i8], [4 x i8]* @.str, i64 0, i64 0), double* nonnull %2)
  %13 = call i32 (i8*, ...) @__isoc99_scanf(i8* getelementptr inbounds ([4 x i8], [4 x i8]* @.str, i64 0, i64 0), double* nonnull %3)
  %14 = call i32 (i8*, ...) @__isoc99_scanf(i8* getelementptr inbounds ([4 x i8], [4 x i8]* @.str, i64 0, i64 0), double* nonnull %4)
  %15 = call i32 (i8*, ...) @__isoc99_scanf(i8* getelementptr inbounds ([4 x i8], [4 x i8]* @.str, i64 0, i64 0), double* nonnull %5)
  %16 = load double, double* %1, align 8, !tbaa !5
  %17 = load double, double* %2, align 8, !tbaa !5
  %18 = fadd double %16, %17
  %19 = load double, double* %3, align 8, !tbaa !5
  %20 = fadd double %18, %19
  %21 = load double, double* %4, align 8, !tbaa !5
  %22 = fadd double %20, %21
  %23 = fmul double %22, 5.000000e-01
  %24 = load double, double* %5, align 8, !tbaa !5
  %25 = fdiv double %24, 3.600000e+02
  %26 = fmul double %25, 0x400921FB4D12D84A
  %27 = fsub double %23, %16
  %28 = fsub double %23, %17
  %29 = fmul double %27, %28
  %30 = fsub double %23, %19
  %31 = fmul double %30, %29
  %32 = fsub double %23, %21
  %33 = fmul double %32, %31
  %34 = fmul double %16, %17
  %35 = fmul double %34, %19
  %36 = fmul double %35, %21
  %37 = call double @cos(double %26) #4
  %38 = call double @cos(double %26) #4
  %39 = fmul double %37, %38
  %40 = fmul double %36, %39
  %41 = fsub double %33, %40
  %42 = call double @sqrt(double %41) #4
  %43 = load double, double* %1, align 8, !tbaa !5
  %44 = fsub double %23, %43
  %45 = load double, double* %2, align 8, !tbaa !5
  %46 = fsub double %23, %45
  %47 = load double, double* %3, align 8, !tbaa !5
  %48 = fsub double %23, %47
  %49 = load double, double* %4, align 8, !tbaa !5
  %50 = fsub double %23, %49
  %51 = insertelement <2 x double> poison, double %44, i32 0
  %52 = insertelement <2 x double> %51, double %43, i32 1
  %53 = insertelement <2 x double> poison, double %46, i32 0
  %54 = insertelement <2 x double> %53, double %45, i32 1
  %55 = fmul <2 x double> %52, %54
  %56 = insertelement <2 x double> poison, double %48, i32 0
  %57 = insertelement <2 x double> %56, double %47, i32 1
  %58 = fmul <2 x double> %55, %57
  %59 = insertelement <2 x double> poison, double %50, i32 0
  %60 = insertelement <2 x double> %59, double %49, i32 1
  %61 = fmul <2 x double> %58, %60
  %62 = call double @cos(double %26) #4
  %63 = call double @cos(double %26) #4
  %64 = fmul double %62, %63
  %65 = extractelement <2 x double> %61, i32 1
  %66 = fmul double %65, %64
  %67 = extractelement <2 x double> %61, i32 0
  %68 = fsub double %67, %66
  %69 = fcmp olt double %68, 0.000000e+00
  br i1 %69, label %70, label %72

70:                                               ; preds = %0
  %71 = call i32 (i8*, ...) @printf(i8* nonnull dereferenceable(1) getelementptr inbounds ([14 x i8], [14 x i8]* @.str.1, i64 0, i64 0))
  br label %74

72:                                               ; preds = %0
  %73 = call i32 (i8*, ...) @printf(i8* nonnull dereferenceable(1) getelementptr inbounds ([6 x i8], [6 x i8]* @.str.2, i64 0, i64 0), double %42)
  br label %74

74:                                               ; preds = %72, %70
  call void @llvm.lifetime.end.p0i8(i64 8, i8* nonnull %10) #4
  call void @llvm.lifetime.end.p0i8(i64 8, i8* nonnull %9) #4
  call void @llvm.lifetime.end.p0i8(i64 8, i8* nonnull %8) #4
  call void @llvm.lifetime.end.p0i8(i64 8, i8* nonnull %7) #4
  call void @llvm.lifetime.end.p0i8(i64 8, i8* nonnull %6) #4
  ret i32 0
}

; Function Attrs: argmemonly mustprogress nofree nosync nounwind willreturn
declare void @llvm.lifetime.start.p0i8(i64 immarg, i8* nocapture) #1

; Function Attrs: nofree nounwind
declare noundef i32 @__isoc99_scanf(i8* nocapture noundef readonly, ...) local_unnamed_addr #2

; Function Attrs: mustprogress nofree nounwind willreturn
declare double @sqrt(double) local_unnamed_addr #3

; Function Attrs: mustprogress nofree nounwind willreturn
declare double @cos(double) local_unnamed_addr #3

; Function Attrs: nofree nounwind
declare noundef i32 @printf(i8* nocapture noundef readonly, ...) local_unnamed_addr #2

; Function Attrs: argmemonly mustprogress nofree nosync nounwind willreturn
declare void @llvm.lifetime.end.p0i8(i64 immarg, i8* nocapture) #1


!llvm.module.flags = !{!0, !1, !2, !3}
!llvm.ident = !{!4}

!0 = !{i32 1, !"wchar_size", i32 4}
!1 = !{i32 7, !"PIC Level", i32 2}
!2 = !{i32 7, !"PIE Level", i32 2}
!3 = !{i32 7, !"uwtable", i32 1}
!4 = !{!"clang version 13.0.0"}
!5 = !{!6, !6, i64 0}
!6 = !{!"double", !7, i64 0}
!7 = !{!"omnipotent char", !8, i64 0}
!8 = !{!"Simple C/C++ TBAA"}
